target datalayout = "e-m:e-p270:32:32-p271:32:32-p272:64:64-i64:64-i128:128-f80:128-n8:16:32:64-S128"
target triple = "x86_64-pc-linux-gnu"

%"struct.gmx::EnumerationArray.0" = type { [6 x float] }
%struct.gmx_output_env_t = type <{ ptr, i32, i8, [3 x i8], i32, i32, i32, [4 x i8] }>

@_ZL23c_picosecondsInTimeUnit = internal constant %"struct.gmx::EnumerationArray.0" { [6 x float] [float 1.000000e+03, float 1.000000e+00, float 0x3F50624DE0000000, float 0x3EB0C6F7A0000000, float 0x3E112E0BE0000000, float 0x3D71979980000000] }, align 4

; Function Attrs: mustprogress nounwind uwtable
define linkonce_odr noundef nonnull align 4 dereferenceable(4) ptr @_ZNK3gmx16EnumerationArrayINS_8TimeUnitEfLS1_6EEixES1_(ptr noundef nonnull align 4 dereferenceable(24) %0, i32 noundef %1) #3 comdat align 2 {
  %3 = alloca ptr, align 8
  %4 = alloca i32, align 4
  store ptr %0, ptr %3, align 8, !tbaa !60
  store i32 %1, ptr %4, align 4, !tbaa !12
  %5 = load ptr, ptr %3, align 8
  %6 = getelementptr inbounds nuw %"struct.gmx::EnumerationArray.0", ptr %5, i32 0, i32 0
  %7 = load i32, ptr %4, align 4, !tbaa !12
  %8 = sext i32 %7 to i64
  %9 = getelementptr inbounds nuw [6 x float], ptr %6, i64 0, i64 %8
  ret ptr %9
}

; Function Attrs: mustprogress nounwind uwtable
define noundef float @_Z20output_env_conv_timePK16gmx_output_env_tf(ptr noundef %0, float noundef %1) #3 {
  %3 = alloca ptr, align 8
  %4 = alloca float, align 4
  store ptr %0, ptr %3, align 8, !tbaa !20
  store float %1, ptr %4, align 4, !tbaa !58
  %5 = load float, ptr %4, align 4, !tbaa !58
  %6 = load ptr, ptr %3, align 8, !tbaa !20
  %7 = getelementptr inbounds nuw %struct.gmx_output_env_t, ptr %6, i32 0, i32 1
  %8 = load i32, ptr %7, align 8, !tbaa !22
  %9 = call noundef nonnull align 4 dereferenceable(4) ptr @_ZNK3gmx16EnumerationArrayINS_8TimeUnitEfLS1_6EEixES1_(ptr noundef nonnull align 4 dereferenceable(24) @_ZL23c_picosecondsInTimeUnit, i32 noundef %8)
  %10 = load float, ptr %9, align 4, !tbaa !58
  %11 = fmul float %5, %10
  ret float %11
}