; Function Attrs: mustprogress nofree norecurse nosync nounwind willreturn memory(argmem: read) uwtable
define noundef float @_Z20output_env_conv_timePK16gmx_output_env_tf(ptr noundef readonly captures(none) %0, float noundef %1) local_unnamed_addr #12 {
  %3 = getelementptr inbounds nuw i8, ptr %0, i64 8
  %4 = load i32, ptr %3, align 8, !tbaa !17
  %5 = sext i32 %4 to i64
  %6 = getelementptr inbounds nuw [6 x float], ptr @_ZL23c_picosecondsInTimeUnit, i64 0, i64 %5
  %7 = load float, ptr %6, align 4, !tbaa !31
  %8 = fmul float %1, %7
  ret float %8
}